target datalayout = "e-m:e-p270:32:32-p271:32:32-p272:64:64-i64:64-i128:128-f80:128-n8:16:32:64-S128"
target triple = "x86_64-pc-linux-gnu"

%"class.std::vector.0" = type { %"struct.std::_Vector_base.1" }
%"struct.std::_Vector_base.1" = type { %"struct.std::_Vector_base<std::vector<int>, std::allocator<std::vector<int>>>::_Vector_impl" }
%"struct.std::_Vector_base<std::vector<int>, std::allocator<std::vector<int>>>::_Vector_impl" = type { %"struct.std::_Vector_base<std::vector<int>, std::allocator<std::vector<int>>>::_Vector_impl_data" }
%"struct.std::_Vector_base<std::vector<int>, std::allocator<std::vector<int>>>::_Vector_impl_data" = type { ptr, ptr, ptr }
%"struct.open_spiel::GameType" = type <{ %"class.std::__cxx11::basic_string", %"class.std::__cxx11::basic_string", i32, i32, i32, i32, i32, i32, i32, i8, i8, i8, i8, %"class.std::map", i8, i8, [6 x i8] }>
%"class.std::__cxx11::basic_string" = type { %"struct.std::__cxx11::basic_string<char>::_Alloc_hider", i64, %union.anon }
%"struct.std::__cxx11::basic_string<char>::_Alloc_hider" = type { ptr }
%union.anon = type { i64, [8 x i8] }
%"class.std::map" = type { %"class.std::_Rb_tree" }
%"class.std::_Rb_tree" = type { %"struct.std::_Rb_tree<std::__cxx11::basic_string<char>, std::pair<const std::__cxx11::basic_string<char>, open_spiel::GameParameter>, std::_Select1st<std::pair<const std::__cxx11::basic_string<char>, open_spiel::GameParameter>>, std::less<std::__cxx11::basic_string<char>>>::_Rb_tree_impl" }
%"struct.std::_Rb_tree<std::__cxx11::basic_string<char>, std::pair<const std::__cxx11::basic_string<char>, open_spiel::GameParameter>, std::_Select1st<std::pair<const std::__cxx11::basic_string<char>, open_spiel::GameParameter>>, std::less<std::__cxx11::basic_string<char>>>::_Rb_tree_impl" = type { [8 x i8], %"struct.std::_Rb_tree_header" }
%"struct.std::_Rb_tree_header" = type { %"struct.std::_Rb_tree_node_base", i64 }
%"struct.std::_Rb_tree_node_base" = type { i32, ptr, ptr, ptr }
%"class.std::vector.6" = type { %"struct.std::_Vector_base.7" }
%"struct.std::_Vector_base.7" = type { %"struct.std::_Vector_base<int, std::allocator<int>>::_Vector_impl" }
%"struct.std::_Vector_base<int, std::allocator<int>>::_Vector_impl" = type { %"struct.std::_Vector_base<int, std::allocator<int>>::_Vector_impl_data" }
%"struct.std::_Vector_base<int, std::allocator<int>>::_Vector_impl_data" = type { ptr, ptr, ptr }
%"class.std::shared_ptr" = type { %"class.std::__shared_ptr" }
%"class.std::__shared_ptr" = type { ptr, %"class.std::__shared_count" }
%"class.std::__shared_count" = type { ptr }
%"class.open_spiel::backgammon::BackgammonState" = type { %"class.open_spiel::State.base", i32, i8, i32, i32, i32, i32, i32, i8, %"class.std::vector.6", %"class.std::vector.6", %"class.std::vector.6", %"class.std::vector.0", %"class.std::vector.29" }
%"class.open_spiel::State.base" = type <{ ptr, %"class.std::shared_ptr", i32, i32, %"class.std::vector.24", i32 }>
%"class.std::vector.24" = type { %"struct.std::_Vector_base.25" }
%"struct.std::_Vector_base.25" = type { %"struct.std::_Vector_base<open_spiel::State::PlayerAction, std::allocator<open_spiel::State::PlayerAction>>::_Vector_impl" }
%"struct.std::_Vector_base<open_spiel::State::PlayerAction, std::allocator<open_spiel::State::PlayerAction>>::_Vector_impl" = type { %"struct.std::_Vector_base<open_spiel::State::PlayerAction, std::allocator<open_spiel::State::PlayerAction>>::_Vector_impl_data" }
%"struct.std::_Vector_base<open_spiel::State::PlayerAction, std::allocator<open_spiel::State::PlayerAction>>::_Vector_impl_data" = type { ptr, ptr, ptr }
%"class.std::vector.29" = type { %"struct.std::_Vector_base.30" }
%"struct.std::_Vector_base.30" = type { %"struct.std::_Vector_base<open_spiel::backgammon::TurnHistoryInfo, std::allocator<open_spiel::backgammon::TurnHistoryInfo>>::_Vector_impl" }
%"struct.std::_Vector_base<open_spiel::backgammon::TurnHistoryInfo, std::allocator<open_spiel::backgammon::TurnHistoryInfo>>::_Vector_impl" = type { %"struct.std::_Vector_base<open_spiel::backgammon::TurnHistoryInfo, std::allocator<open_spiel::backgammon::TurnHistoryInfo>>::_Vector_impl_data" }
%"struct.std::_Vector_base<open_spiel::backgammon::TurnHistoryInfo, std::allocator<open_spiel::backgammon::TurnHistoryInfo>>::_Vector_impl_data" = type { ptr, ptr, ptr }
%"class.open_spiel::State" = type <{ ptr, %"class.std::shared_ptr", i32, i32, %"class.std::vector.24", i32, [4 x i8] }>
%"class.open_spiel::backgammon::BackgammonGame" = type <{ %"class.open_spiel::Game", i32, i8, [3 x i8] }>
%"class.open_spiel::Game" = type { ptr, %"class.std::enable_shared_from_this", %"struct.open_spiel::GameType", %"class.std::map", %"class.std::map", %"class.absl::debian2::Mutex" }
%"class.std::enable_shared_from_this" = type { %"class.std::weak_ptr" }
%"class.std::weak_ptr" = type { %"class.std::__weak_ptr" }
%"class.std::__weak_ptr" = type { ptr, %"class.std::__weak_count" }
%"class.std::__weak_count" = type { ptr }
%"class.absl::debian2::Mutex" = type { %"struct.std::atomic" }
%"struct.std::atomic" = type { %"struct.std::__atomic_base" }
%"struct.std::__atomic_base" = type { i64 }

@.str.27 = private unnamed_addr constant [2 x i8] c" \00", align 1
@.str.34 = private unnamed_addr constant [140 x i8] c"generated/home/dtcxzyw/WorkSpace/Projects/compilers/llvm-opt-benchmark/bench/openspiel/open_spiel/open_spiel/games/backgammon/backgammon.cc\00", align 1
@.str.35 = private unnamed_addr constant [2 x i8] c":\00", align 1
@.str.38 = private unnamed_addr constant [4 x i8] c" = \00", align 1
@.str.110 = private unnamed_addr constant [68 x i8] c"CountTotalCheckers(kXPlayerId) == NumCheckersPerPlayer(game_.get())\00", align 1
@.str.111 = private unnamed_addr constant [32 x i8] c"\0ACountTotalCheckers(kXPlayerId)\00", align 1
@.str.112 = private unnamed_addr constant [39 x i8] c", NumCheckersPerPlayer(game_.get()) = \00", align 1
@.str.113 = private unnamed_addr constant [68 x i8] c"CountTotalCheckers(kOPlayerId) == NumCheckersPerPlayer(game_.get())\00", align 1
@.str.114 = private unnamed_addr constant [32 x i8] c"\0ACountTotalCheckers(kOPlayerId)\00", align 1

; Function Attrs: mustprogress nounwind uwtable
define noundef i32 @_ZNK10open_spiel10backgammon14BackgammonGame20NumCheckersPerPlayerEv(ptr noundef nonnull align 8 dereferenceable(285) %0) #4 align 2 {
  %2 = alloca i32, align 4
  %3 = alloca ptr, align 8
  store ptr %0, ptr %3, align 8
  %4 = load ptr, ptr %3, align 8
  %5 = getelementptr inbounds nuw %"class.open_spiel::backgammon::BackgammonGame", ptr %4, i32 0, i32 2
  %6 = load i8, ptr %5, align 4
  %7 = trunc i8 %6 to i1
  br i1 %7, label %8, label %9

8:                                                ; preds = %1
  store i32 3, ptr %2, align 4
  br label %10

9:                                                ; preds = %1
  store i32 15, ptr %2, align 4
  br label %10

10:                                               ; preds = %9, %8
  %11 = load i32, ptr %2, align 4
  ret i32 %11
}

; Function Attrs: mustprogress nounwind uwtable
define internal noundef i32 @_ZN10open_spiel10backgammon12_GLOBAL__N_120NumCheckersPerPlayerEPKNS_4GameE(ptr noundef %0) #4 {
  %2 = alloca ptr, align 8
  store ptr %0, ptr %2, align 8
  %3 = load ptr, ptr %2, align 8
  %4 = call noundef i32 @_ZNK10open_spiel10backgammon14BackgammonGame20NumCheckersPerPlayerEv(ptr noundef nonnull align 8 dereferenceable(285) %3)
  ret i32 %4
}

; Function Attrs: mustprogress nounwind uwtable
define linkonce_odr noundef ptr @_ZNKSt12__shared_ptrIKN10open_spiel4GameELN9__gnu_cxx12_Lock_policyE2EE3getEv(ptr noundef nonnull align 8 dereferenceable(16) %0) #4 comdat align 2 {
  %2 = alloca ptr, align 8
  store ptr %0, ptr %2, align 8
  %3 = load ptr, ptr %2, align 8
  %4 = getelementptr inbounds nuw %"class.std::__shared_ptr", ptr %3, i32 0, i32 0
  %5 = load ptr, ptr %4, align 8
  ret ptr %5
}

; Function Attrs: mustprogress uwtable
define void @_ZN10open_spiel10backgammon15BackgammonState8SetStateEibRKSt6vectorIiSaIiEES6_S6_RKS2_IS4_SaIS4_EE(ptr noundef nonnull align 8 dereferenceable(216) %0, i32 noundef %1, i1 noundef zeroext %2, ptr noundef nonnull align 8 dereferenceable(24) %3, ptr noundef nonnull align 8 dereferenceable(24) %4, ptr noundef nonnull align 8 dereferenceable(24) %5, ptr noundef nonnull align 8 dereferenceable(24) %6) #5 align 2 personality ptr @__gxx_personality_v0 {
  %8 = alloca ptr, align 8
  %9 = alloca i32, align 4
  %10 = alloca i8, align 1
  %11 = alloca ptr, align 8
  %12 = alloca ptr, align 8
  %13 = alloca ptr, align 8
  %14 = alloca ptr, align 8
  %15 = alloca i32, align 4
  %16 = alloca i32, align 4
  %17 = alloca %"class.std::__cxx11::basic_string", align 8
  %18 = alloca i32, align 4
  %19 = alloca ptr, align 8
  %20 = alloca i32, align 4
  %21 = alloca i32, align 4
  %22 = alloca i32, align 4
  %23 = alloca %"class.std::__cxx11::basic_string", align 8
  %24 = alloca i32, align 4
  store ptr %0, ptr %8, align 8
  store i32 %1, ptr %9, align 4
  %25 = zext i1 %2 to i8
  store i8 %25, ptr %10, align 1
  store ptr %3, ptr %11, align 8
  store ptr %4, ptr %12, align 8
  store ptr %5, ptr %13, align 8
  store ptr %6, ptr %14, align 8
  %26 = load ptr, ptr %8, align 8
  %27 = load i32, ptr %9, align 4
  %28 = getelementptr inbounds nuw %"class.open_spiel::backgammon::BackgammonState", ptr %26, i32 0, i32 3
  store i32 %27, ptr %28, align 4
  %29 = load i8, ptr %10, align 1
  %30 = trunc i8 %29 to i1
  %31 = getelementptr inbounds nuw %"class.open_spiel::backgammon::BackgammonState", ptr %26, i32 0, i32 8
  %32 = zext i1 %30 to i8
  store i8 %32, ptr %31, align 8
  %33 = load ptr, ptr %11, align 8
  %34 = getelementptr inbounds nuw %"class.open_spiel::backgammon::BackgammonState", ptr %26, i32 0, i32 9
  %35 = call noundef nonnull align 8 dereferenceable(24) ptr @_ZNSt6vectorIiSaIiEEaSERKS1_(ptr noundef nonnull align 8 dereferenceable(24) %34, ptr noundef nonnull align 8 dereferenceable(24) %33)
  %36 = load ptr, ptr %12, align 8
  %37 = getelementptr inbounds nuw %"class.open_spiel::backgammon::BackgammonState", ptr %26, i32 0, i32 10
  %38 = call noundef nonnull align 8 dereferenceable(24) ptr @_ZNSt6vectorIiSaIiEEaSERKS1_(ptr noundef nonnull align 8 dereferenceable(24) %37, ptr noundef nonnull align 8 dereferenceable(24) %36)
  %39 = load ptr, ptr %13, align 8
  %40 = getelementptr inbounds nuw %"class.open_spiel::backgammon::BackgammonState", ptr %26, i32 0, i32 11
  %41 = call noundef nonnull align 8 dereferenceable(24) ptr @_ZNSt6vectorIiSaIiEEaSERKS1_(ptr noundef nonnull align 8 dereferenceable(24) %40, ptr noundef nonnull align 8 dereferenceable(24) %39)
  %42 = load ptr, ptr %14, align 8
  %43 = getelementptr inbounds nuw %"class.open_spiel::backgammon::BackgammonState", ptr %26, i32 0, i32 12
  %44 = call noundef nonnull align 8 dereferenceable(24) ptr @_ZNSt6vectorIS_IiSaIiEESaIS1_EEaSERKS3_(ptr noundef nonnull align 8 dereferenceable(24) %43, ptr noundef nonnull align 8 dereferenceable(24) %42)
  br label %45

45:                                               ; preds = %7
  %46 = call noundef i32 @_ZNK10open_spiel10backgammon15BackgammonState18CountTotalCheckersEi(ptr noundef nonnull align 8 dereferenceable(216) %26, i32 noundef 0)
  store i32 %46, ptr %15, align 4
  %47 = getelementptr inbounds nuw %"class.open_spiel::State", ptr %26, i32 0, i32 1
  %48 = call noundef ptr @_ZNKSt12__shared_ptrIKN10open_spiel4GameELN9__gnu_cxx12_Lock_policyE2EE3getEv(ptr noundef nonnull align 8 dereferenceable(16) %47) #3
  %49 = call noundef i32 @_ZN10open_spiel10backgammon12_GLOBAL__N_120NumCheckersPerPlayerEPKNS_4GameE(ptr noundef %48)
  store i32 %49, ptr %16, align 4
  %50 = load i32, ptr %15, align 4
  %51 = load i32, ptr %16, align 4
  %52 = icmp eq i32 %50, %51
  br i1 %52, label %59, label %53

53:                                               ; preds = %45
  store i32 1296, ptr %18, align 4
  call void @_ZN10open_spiel8internal11SpielStrCatIJRA140_KcRA2_S2_iS6_RA68_S2_RA32_S2_RA4_S2_RiRA39_S2_SD_EEENSt7__cxx1112basic_stringIcSt11char_traitsIcESaIcEEEDpOT_(ptr dead_on_unwind writable sret(%"class.std::__cxx11::basic_string") align 8 %17, ptr noundef nonnull align 1 dereferenceable(140) @.str.34, ptr noundef nonnull align 1 dereferenceable(2) @.str.35, ptr noundef nonnull align 4 dereferenceable(4) %18, ptr noundef nonnull align 1 dereferenceable(2) @.str.27, ptr noundef nonnull align 1 dereferenceable(68) @.str.110, ptr noundef nonnull align 1 dereferenceable(32) @.str.111, ptr noundef nonnull align 1 dereferenceable(4) @.str.38, ptr noundef nonnull align 4 dereferenceable(4) %15, ptr noundef nonnull align 1 dereferenceable(39) @.str.112, ptr noundef nonnull align 4 dereferenceable(4) %16)
  invoke void @_ZN10open_spiel15SpielFatalErrorERKNSt7__cxx1112basic_stringIcSt11char_traitsIcESaIcEEE(ptr noundef nonnull align 8 dereferenceable(32) %17) #17
          to label %54 unwind label %55

54:                                               ; preds = %53
  unreachable

55:                                               ; preds = %53
  %56 = landingpad { ptr, i32 }
          cleanup
  %57 = extractvalue { ptr, i32 } %56, 0
  store ptr %57, ptr %19, align 8
  %58 = extractvalue { ptr, i32 } %56, 1
  store i32 %58, ptr %20, align 4
  call void @_ZNSt7__cxx1112basic_stringIcSt11char_traitsIcESaIcEED1Ev(ptr noundef nonnull align 8 dereferenceable(32) %17) #3
  br label %77

59:                                               ; preds = %45
  br label %60

60:                                               ; preds = %59
  br label %61

61:                                               ; preds = %60
  %62 = call noundef i32 @_ZNK10open_spiel10backgammon15BackgammonState18CountTotalCheckersEi(ptr noundef nonnull align 8 dereferenceable(216) %26, i32 noundef 1)
  store i32 %62, ptr %21, align 4
  %63 = getelementptr inbounds nuw %"class.open_spiel::State", ptr %26, i32 0, i32 1
  %64 = call noundef ptr @_ZNKSt12__shared_ptrIKN10open_spiel4GameELN9__gnu_cxx12_Lock_policyE2EE3getEv(ptr noundef nonnull align 8 dereferenceable(16) %63) #3
  %65 = call noundef i32 @_ZN10open_spiel10backgammon12_GLOBAL__N_120NumCheckersPerPlayerEPKNS_4GameE(ptr noundef %64)
  store i32 %65, ptr %22, align 4
  %66 = load i32, ptr %21, align 4
  %67 = load i32, ptr %22, align 4
  %68 = icmp eq i32 %66, %67
  br i1 %68, label %75, label %69

69:                                               ; preds = %61
  store i32 1298, ptr %24, align 4
  call void @_ZN10open_spiel8internal11SpielStrCatIJRA140_KcRA2_S2_iS6_RA68_S2_RA32_S2_RA4_S2_RiRA39_S2_SD_EEENSt7__cxx1112basic_stringIcSt11char_traitsIcESaIcEEEDpOT_(ptr dead_on_unwind writable sret(%"class.std::__cxx11::basic_string") align 8 %23, ptr noundef nonnull align 1 dereferenceable(140) @.str.34, ptr noundef nonnull align 1 dereferenceable(2) @.str.35, ptr noundef nonnull align 4 dereferenceable(4) %24, ptr noundef nonnull align 1 dereferenceable(2) @.str.27, ptr noundef nonnull align 1 dereferenceable(68) @.str.113, ptr noundef nonnull align 1 dereferenceable(32) @.str.114, ptr noundef nonnull align 1 dereferenceable(4) @.str.38, ptr noundef nonnull align 4 dereferenceable(4) %21, ptr noundef nonnull align 1 dereferenceable(39) @.str.112, ptr noundef nonnull align 4 dereferenceable(4) %22)
  invoke void @_ZN10open_spiel15SpielFatalErrorERKNSt7__cxx1112basic_stringIcSt11char_traitsIcESaIcEEE(ptr noundef nonnull align 8 dereferenceable(32) %23) #17
          to label %70 unwind label %71

70:                                               ; preds = %69
  unreachable

71:                                               ; preds = %69
  %72 = landingpad { ptr, i32 }
          cleanup
  %73 = extractvalue { ptr, i32 } %72, 0
  store ptr %73, ptr %19, align 8
  %74 = extractvalue { ptr, i32 } %72, 1
  store i32 %74, ptr %20, align 4
  call void @_ZNSt7__cxx1112basic_stringIcSt11char_traitsIcESaIcEED1Ev(ptr noundef nonnull align 8 dereferenceable(32) %23) #3
  br label %77

75:                                               ; preds = %61
  br label %76

76:                                               ; preds = %75
  ret void

77:                                               ; preds = %71, %55
  %78 = load ptr, ptr %19, align 8
  %79 = load i32, ptr %20, align 4
  %80 = insertvalue { ptr, i32 } poison, ptr %78, 0
  %81 = insertvalue { ptr, i32 } %80, i32 %79, 1
  resume { ptr, i32 } %81
}