; Function Attrs: mustprogress uwtable
define void @_ZN10open_spiel10backgammon15BackgammonState8SetStateEibRKSt6vectorIiSaIiEES6_S6_RKS2_IS4_SaIS4_EE(ptr noundef nonnull align 8 dereferenceable(216) %0, i32 noundef %1, i1 noundef zeroext %2, ptr noundef nonnull align 8 dereferenceable(24) %3, ptr noundef nonnull align 8 dereferenceable(24) %4, ptr noundef nonnull align 8 dereferenceable(24) %5, ptr noundef nonnull align 8 dereferenceable(24) %6) local_unnamed_addr #4 align 2 personality ptr @__gxx_personality_v0 {
  %8 = alloca i32, align 4
  %9 = alloca i32, align 4
  %10 = alloca %"class.std::__cxx11::basic_string", align 8
  %11 = alloca i32, align 4
  %12 = alloca i32, align 4
  %13 = alloca i32, align 4
  %14 = alloca %"class.std::__cxx11::basic_string", align 8
  %15 = alloca i32, align 4
  %16 = zext i1 %2 to i8
  %17 = getelementptr inbounds nuw i8, ptr %0, i64 68
  store i32 %1, ptr %17, align 4
  %18 = getelementptr inbounds nuw i8, ptr %0, i64 88
  store i8 %16, ptr %18, align 8
  %19 = getelementptr inbounds nuw i8, ptr %0, i64 96
  %20 = tail call noundef nonnull align 8 dereferenceable(24) ptr @_ZNSt6vectorIiSaIiEEaSERKS1_(ptr noundef nonnull align 8 dereferenceable(24) %19, ptr noundef nonnull align 8 dereferenceable(24) %3)
  %21 = getelementptr inbounds nuw i8, ptr %0, i64 120
  %22 = tail call noundef nonnull align 8 dereferenceable(24) ptr @_ZNSt6vectorIiSaIiEEaSERKS1_(ptr noundef nonnull align 8 dereferenceable(24) %21, ptr noundef nonnull align 8 dereferenceable(24) %4)
  %23 = getelementptr inbounds nuw i8, ptr %0, i64 144
  %24 = tail call noundef nonnull align 8 dereferenceable(24) ptr @_ZNSt6vectorIiSaIiEEaSERKS1_(ptr noundef nonnull align 8 dereferenceable(24) %23, ptr noundef nonnull align 8 dereferenceable(24) %5)
  %25 = getelementptr inbounds nuw i8, ptr %0, i64 168
  %26 = tail call noundef nonnull align 8 dereferenceable(24) ptr @_ZNSt6vectorIS_IiSaIiEESaIS1_EEaSERKS3_(ptr noundef nonnull align 8 dereferenceable(24) %25, ptr noundef nonnull align 8 dereferenceable(24) %6)
  %27 = tail call noundef i32 @_ZNK10open_spiel10backgammon15BackgammonState18CountTotalCheckersEi(ptr noundef nonnull align 8 dereferenceable(216) %0, i32 noundef 0)
  store i32 %27, ptr %8, align 4
  %28 = getelementptr inbounds nuw i8, ptr %0, i64 8
  %29 = load ptr, ptr %28, align 8
  %30 = getelementptr i8, ptr %29, i64 284
  %.val10 = load i8, ptr %30, align 4
  %31 = trunc i8 %.val10 to i1
  %..i.i = select i1 %31, i32 3, i32 15
  store i32 %..i.i, ptr %9, align 4
  %32 = icmp eq i32 %27, %..i.i
  br i1 %32, label %37, label %33

33:                                               ; preds = %7
  store i32 1296, ptr %11, align 4
  call void @_ZN10open_spiel8internal11SpielStrCatIJRA140_KcRA2_S2_iS6_RA68_S2_RA32_S2_RA4_S2_RiRA39_S2_SD_EEENSt7__cxx1112basic_stringIcSt11char_traitsIcESaIcEEEDpOT_(ptr dead_on_unwind nonnull writable sret(%"class.std::__cxx11::basic_string") align 8 %10, ptr noundef nonnull align 1 dereferenceable(140) @.str.34, ptr noundef nonnull align 1 dereferenceable(2) @.str.35, ptr noundef nonnull align 4 dereferenceable(4) %11, ptr noundef nonnull align 1 dereferenceable(2) @.str.27, ptr noundef nonnull align 1 dereferenceable(68) @.str.110, ptr noundef nonnull align 1 dereferenceable(32) @.str.111, ptr noundef nonnull align 1 dereferenceable(4) @.str.38, ptr noundef nonnull align 4 dereferenceable(4) %8, ptr noundef nonnull align 1 dereferenceable(39) @.str.112, ptr noundef nonnull align 4 dereferenceable(4) %9)
  invoke void @_ZN10open_spiel15SpielFatalErrorERKNSt7__cxx1112basic_stringIcSt11char_traitsIcESaIcEEE(ptr noundef nonnull align 8 dereferenceable(32) %10) #29
          to label %34 unwind label %35

34:                                               ; preds = %33
  unreachable

35:                                               ; preds = %33
  %36 = landingpad { ptr, i32 }
          cleanup
  br label %48

37:                                               ; preds = %7
  %38 = tail call noundef i32 @_ZNK10open_spiel10backgammon15BackgammonState18CountTotalCheckersEi(ptr noundef nonnull align 8 dereferenceable(216) %0, i32 noundef 1)
  store i32 %38, ptr %12, align 4
  %39 = load ptr, ptr %28, align 8
  %40 = getelementptr i8, ptr %39, i64 284
  %.val = load i8, ptr %40, align 4
  %41 = trunc i8 %.val to i1
  %..i.i11 = select i1 %41, i32 3, i32 15
  store i32 %..i.i11, ptr %13, align 4
  %42 = icmp eq i32 %38, %..i.i11
  br i1 %42, label %47, label %43

43:                                               ; preds = %37
  store i32 1298, ptr %15, align 4
  call void @_ZN10open_spiel8internal11SpielStrCatIJRA140_KcRA2_S2_iS6_RA68_S2_RA32_S2_RA4_S2_RiRA39_S2_SD_EEENSt7__cxx1112basic_stringIcSt11char_traitsIcESaIcEEEDpOT_(ptr dead_on_unwind nonnull writable sret(%"class.std::__cxx11::basic_string") align 8 %14, ptr noundef nonnull align 1 dereferenceable(140) @.str.34, ptr noundef nonnull align 1 dereferenceable(2) @.str.35, ptr noundef nonnull align 4 dereferenceable(4) %15, ptr noundef nonnull align 1 dereferenceable(2) @.str.27, ptr noundef nonnull align 1 dereferenceable(68) @.str.113, ptr noundef nonnull align 1 dereferenceable(32) @.str.114, ptr noundef nonnull align 1 dereferenceable(4) @.str.38, ptr noundef nonnull align 4 dereferenceable(4) %12, ptr noundef nonnull align 1 dereferenceable(39) @.str.112, ptr noundef nonnull align 4 dereferenceable(4) %13)
  invoke void @_ZN10open_spiel15SpielFatalErrorERKNSt7__cxx1112basic_stringIcSt11char_traitsIcESaIcEEE(ptr noundef nonnull align 8 dereferenceable(32) %14) #29
          to label %44 unwind label %45

44:                                               ; preds = %43
  unreachable

45:                                               ; preds = %43
  %46 = landingpad { ptr, i32 }
          cleanup
  br label %48

47:                                               ; preds = %37
  ret void

48:                                               ; preds = %45, %35
  %.sink = phi ptr [ %14, %45 ], [ %10, %35 ]
  %.pn = phi { ptr, i32 } [ %46, %45 ], [ %36, %35 ]
  call void @_ZNSt7__cxx1112basic_stringIcSt11char_traitsIcESaIcEED1Ev(ptr noundef nonnull align 8 dereferenceable(32) %.sink) #30
  resume { ptr, i32 } %.pn
}